     1                                  section .text
     2                                  	extern calloc, realloc, free, scanf, printf
     3                                  	global main
     4                                  LC0:
     5 00000000 256C64000000000000-     	dq "%ld", 0
     6 00000009 00000000000000     
     7                                  LC1:
     8 00000010 256C64200000000000-     	dq "%ld ", 0
     9 00000019 00000000000000     
    10                                  newlinestring:
    11 00000020 0A0000000000000000-     	dq "", 10, 0
    12 00000029 00000000000000     
    13                                  
    14                                  main:
    15 00000030 55                      	push rbp
    16 00000031 4889E5                  	mov	rbp, rsp
    17 00000034 4883EC40                	sub	rsp, 64
    18 00000038 C745FC00000000          	mov	DWORD[rbp - 4], 0
    19 0000003F 48C745C800000000        	mov	QWORD[rbp - 56], 0
    20 00000047 C745F801000000          	mov	DWORD[rbp - 8], 1
    21 0000004E BE08000000              	mov	esi, 8
    22 00000053 BFF4010000              	mov	edi, 500
    23 00000058 E8(00000000)            	call	calloc
    24 0000005D 488945F0                	mov	QWORD[rbp - 16], rax
    25 00000061 C745ECF4010000          	mov	DWORD[rbp - 20], 500
    26 00000068 C745E800000000          	mov	DWORD[rbp - 24], 0
    27 0000006F EB36                    	jmp	.L2
    28                                  .L3:
    29 00000071 8345E801                	add	DWORD[rbp - 24], 1
    30 00000075 8B45E8                  	mov	eax, DWORD[rbp - 24]
    31 00000078 3B45EC                  	cmp	eax, DWORD[rbp - 20]
    32 0000007B 7C2A                    	jl	.L2
    33 0000007D 8345F801                	add	DWORD[rbp - 8], 1
    34 00000081 8B45F8                  	mov	eax, DWORD[rbp - 8]
    35 00000084 4898                    	cdqe
    36 00000086 4869D0A00F0000          	imul	rdx, rax, 4000
    37 0000008D 488B45F0                	mov	rax, QWORD[rbp - 16]
    38 00000091 4889D6                  	mov	rsi, rdx
    39 00000094 4889C7                  	mov	rdi, rax
    40 00000097 E8(00000000)            	call	realloc
    41 0000009C 488945F0                	mov	QWORD[rbp - 16], rax
    42 000000A0 8145ECF4010000          	add	DWORD[rbp - 20], 500
    43                                  .L2:
    44 000000A7 8B45E8                  	mov	eax, DWORD[rbp - 24]
    45 000000AA 4898                    	cdqe
    46 000000AC 488D14C500000000        	lea	rdx, [rax * 8]
    47 000000B4 488B45F0                	mov	rax, QWORD[rbp - 16]
    48 000000B8 4801D0                  	add	rax, rdx
    49 000000BB 4889C6                  	mov	rsi, rax
    50 000000BE BF[00000000]            	mov	edi, LC0
    51 000000C3 B800000000              	mov	eax, 0
    52 000000C8 E8(00000000)            	call	scanf
    53 000000CD 83F8FF                  	cmp	eax, -1
    54 000000D0 759F                    	jne	.L3
    55 000000D2 8B45E8                  	mov	eax, DWORD[rbp - 24]
    56 000000D5 4898                    	cdqe
    57 000000D7 488D14C500000000        	lea	rdx, [rax * 8]
    58 000000DF 488B45F0                	mov	rax, QWORD[rbp - 16]
    59 000000E3 4889D6                  	mov	rsi, rdx
    60 000000E6 4889C7                  	mov	rdi, rax
    61 000000E9 E8(00000000)            	call	realloc
    62 000000EE 488945F0                	mov	QWORD[rbp - 16], rax
    63 000000F2 8B45E8                  	mov	eax, DWORD[rbp - 24]
    64 000000F5 8945EC                  	mov	DWORD[rbp - 20], eax
    65 000000F8 8B45FC                  	mov	eax, DWORD[rbp - 4]
    66 000000FB 4898                    	cdqe
    67 000000FD 488D14C500000000        	lea	rdx, [rax * 8]
    68 00000105 488B45F0                	mov	rax, QWORD[rbp - 16]
    69 00000109 4801D0                  	add	rax, rdx
    70 0000010C 488B00                  	mov	rax, QWORD[rax]
    71 0000010F 488945E0                	mov	QWORD[rbp - 32], rax
    72 00000113 8B45FC                  	mov	eax, DWORD[rbp - 4]
    73 00000116 4898                    	cdqe
    74 00000118 4883C001                	add	rax, 1
    75 0000011C 488D14C500000000        	lea	rdx, [rax * 8]
    76 00000124 488B45F0                	mov	rax, QWORD[rbp - 16]
    77 00000128 4801D0                  	add	rax, rdx
    78 0000012B 488B00                  	mov	rax, QWORD[rax]
    79 0000012E 488945D8                	mov	QWORD[rbp - 40], rax
    80 00000132 8B45FC                  	mov	eax, DWORD[rbp - 4]
    81 00000135 4898                    	cdqe
    82 00000137 4883C002                	add	rax, 2
    83 0000013B 488D14C500000000        	lea	rdx, [rax * 8]
    84 00000143 488B45F0                	mov	rax, QWORD[rbp - 16]
    85 00000147 4801D0                  	add	rax, rdx
    86 0000014A 488B00                  	mov	rax, QWORD[rax]
    87 0000014D 488945D0                	mov	QWORD[rbp - 48], rax
    88 00000151 E9BC000000              	jmp	.L4
    89                                  .L7:
    90 00000156 488B45E0                	mov	rax, QWORD[rbp - 32]
    91 0000015A 488D14C500000000        	lea	rdx, [rax * 8]
    92 00000162 488B45F0                	mov	rax, QWORD[rbp - 16]
    93 00000166 4801D0                  	add	rax, rdx
    94 00000169 488B55E0                	mov	rdx, QWORD[rbp - 32]
    95 0000016D 488D0CD500000000        	lea	rcx, [ rdx * 8]
    96 00000175 488B55F0                	mov	rdx, QWORD[rbp - 16]
    97 00000179 4801CA                  	add	rdx, rcx
    98 0000017C 488B0A                  	mov	rcx, QWORD[rdx]
    99 0000017F 488B55D8                	mov	rdx, QWORD[rbp - 40]
   100 00000183 488D34D500000000        	lea	rsi, [ rdx * 8]
   101 0000018B 488B55F0                	mov	rdx, QWORD[rbp - 16]
   102 0000018F 4801F2                  	add	rdx, rsi
   103 00000192 488B12                  	mov	rdx, QWORD[rdx]
   104 00000195 4829D1                  	sub	rcx, rdx
   105 00000198 4889CA                  	mov	rdx, rcx
   106 0000019B 488910                  	mov	QWORD[rax], rdx
   107 0000019E 488B00                  	mov	rax, QWORD[rax]
   108 000001A1 488945C8                	mov	QWORD[rbp - 56], rax
   109 000001A5 48837DC800              	cmp	QWORD[rbp - 56], 0
   110 000001AA 7909                    	jns	.L5
   111 000001AC 488B45D0                	mov	rax, QWORD[rbp - 48]
   112 000001B0 8945FC                  	mov	DWORD[rbp - 4], eax
   113 000001B3 EB04                    	jmp	.L6
   114                                  .L5:
   115 000001B5 8345FC03                	add	DWORD[rbp - 4], 3
   116                                  .L6:
   117 000001B9 8B45FC                  	mov	eax, DWORD[rbp - 4]
   118 000001BC 4898                    	cdqe
   119 000001BE 488D14C500000000        	lea	rdx, [rax * 8]
   120 000001C6 488B45F0                	mov	rax, QWORD[rbp - 16]
   121 000001CA 4801D0                  	add	rax, rdx
   122 000001CD 488B00                  	mov	rax, QWORD[rax]
   123 000001D0 488945E0                	mov	QWORD[rbp - 32], rax
   124 000001D4 8B45FC                  	mov	eax, DWORD[rbp - 4]
   125 000001D7 4898                    	cdqe
   126 000001D9 4883C001                	add	rax, 1
   127 000001DD 488D14C500000000        	lea	rdx, [rax * 8]
   128 000001E5 488B45F0                	mov	rax, QWORD[rbp - 16]
   129 000001E9 4801D0                  	add	rax, rdx
   130 000001EC 488B00                  	mov	rax, QWORD[rax]
   131 000001EF 488945D8                	mov	QWORD[rbp - 40], rax
   132 000001F3 8B45FC                  	mov	eax, DWORD[rbp - 4]
   133 000001F6 4898                    	cdqe
   134 000001F8 4883C002                	add	rax, 2
   135 000001FC 488D14C500000000        	lea	rdx, [rax * 8]
   136 00000204 488B45F0                	mov	rax, QWORD[rbp - 16]
   137 00000208 4801D0                  	add	rax, rdx
   138 0000020B 488B00                  	mov	rax, QWORD[rax]
   139 0000020E 488945D0                	mov	QWORD[rbp - 48], rax
   140                                  .L4:
   141 00000212 48837DE000              	cmp	QWORD[rbp - 32], 0
   142 00000217 0F8539FFFFFF            	jne	.L7
   143 0000021D 48837DD800              	cmp	QWORD[rbp - 40], 0
   144 00000222 0F852EFFFFFF            	jne	.L7
   145 00000228 48837DD000              	cmp	QWORD[rbp - 48], 0
   146 0000022D 0F8523FFFFFF            	jne	.L7
   147 00000233 C745FC00000000          	mov	DWORD[rbp - 4], 0
   148 0000023A EB2D                    	jmp	.L8
   149                                  .L9:
   150 0000023C 8B45FC                  	mov	eax, DWORD[rbp - 4]
   151 0000023F 4898                    	cdqe
   152 00000241 488D14C500000000        	lea	rdx, [rax * 8]
   153 00000249 488B45F0                	mov	rax, QWORD[rbp - 16]
   154 0000024D 4801D0                  	add	rax, rdx
   155 00000250 488B00                  	mov	rax, QWORD[rax]
   156 00000253 4889C6                  	mov	rsi, rax
   157 00000256 BF[10000000]            	mov	edi, LC1
   158 0000025B B800000000              	mov	eax, 0
   159 00000260 E8(00000000)            	call	printf
   160 00000265 8345FC01                	add	DWORD[rbp - 4], 1
   161                                  .L8:
   162 00000269 8B45FC                  	mov	eax, DWORD[rbp - 4]
   163 0000026C 3B45EC                  	cmp	eax, DWORD[rbp - 20]
   164 0000026F 7CCB                    	jl	.L9
   165 00000271 488B45F0                	mov	rax, QWORD[rbp - 16]
   166 00000275 4889C7                  	mov	rdi, rax
   167 00000278 E8(00000000)            	call free
   168 0000027D BF[20000000]            	mov	edi, newlinestring
   169 00000282 E8(00000000)            	call printf
   170 00000287 B800000000              	mov	eax, 0
   171 0000028C C9                      	leave
   172 0000028D C3                      	ret
